target datalayout = "e-m:e-p270:32:32-p271:32:32-p272:64:64-i64:64-i128:128-f80:128-n8:16:32:64-S128"
target triple = "x86_64-pc-linux-gnu"

%struct.lua_State = type { i8, i8, i8, i8, i8, i8, i8, ptr, ptr, ptr, ptr, ptr, ptr, ptr, ptr, i32, i32, i16, i16, i32, ptr, ptr, ptr, ptr, ptr }
%struct.lua_TValue = type { %union.Value, [1 x i32], i32 }
%union.Value = type { ptr }
%struct.LuaTable = type { i8, i8, i8, i8, i8, i8, i8, i8, i32, %union.anon.2, ptr, ptr, ptr, ptr }
%union.anon.2 = type { i32 }

@.str.24 = private unnamed_addr constant [26 x i8] c"too many elements to move\00", align 1
@.str.25 = private unnamed_addr constant [24 x i8] c"destination wrap around\00", align 1

; Function Attrs: mustprogress uwtable
define internal noundef i32 @_ZL5tmoveP9lua_State(ptr noundef %0) #0 {
  %2 = alloca ptr, align 8
  %3 = alloca i32, align 4
  %4 = alloca i32, align 4
  %5 = alloca i32, align 4
  %6 = alloca i32, align 4
  %7 = alloca i32, align 4
  %8 = alloca ptr, align 8
  store ptr %0, ptr %2, align 8, !tbaa !4
  %9 = load ptr, ptr %2, align 8, !tbaa !4
  call void @_Z14luaL_checktypeP9lua_Stateii(ptr noundef %9, i32 noundef 1, i32 noundef 6)
  call void @llvm.lifetime.start.p0(i64 4, ptr %3) #7
  %10 = load ptr, ptr %2, align 8, !tbaa !4
  %11 = call noundef i32 @_Z17luaL_checkintegerP9lua_Statei(ptr noundef %10, i32 noundef 2)
  store i32 %11, ptr %3, align 4, !tbaa !23
  call void @llvm.lifetime.start.p0(i64 4, ptr %4) #7
  %12 = load ptr, ptr %2, align 8, !tbaa !4
  %13 = call noundef i32 @_Z17luaL_checkintegerP9lua_Statei(ptr noundef %12, i32 noundef 3)
  store i32 %13, ptr %4, align 4, !tbaa !23
  call void @llvm.lifetime.start.p0(i64 4, ptr %5) #7
  %14 = load ptr, ptr %2, align 8, !tbaa !4
  %15 = call noundef i32 @_Z17luaL_checkintegerP9lua_Statei(ptr noundef %14, i32 noundef 4)
  store i32 %15, ptr %5, align 4, !tbaa !23
  call void @llvm.lifetime.start.p0(i64 4, ptr %6) #7
  %16 = load ptr, ptr %2, align 8, !tbaa !4
  %17 = call noundef i32 @_Z8lua_typeP9lua_Statei(ptr noundef %16, i32 noundef 5)
  %18 = icmp sle i32 %17, 0
  %19 = xor i1 %18, true
  %20 = select i1 %19, i32 5, i32 1
  store i32 %20, ptr %6, align 4, !tbaa !23
  %21 = load ptr, ptr %2, align 8, !tbaa !4
  %22 = load i32, ptr %6, align 4, !tbaa !23
  call void @_Z14luaL_checktypeP9lua_Stateii(ptr noundef %21, i32 noundef %22, i32 noundef 6)
  %23 = load i32, ptr %4, align 4, !tbaa !23
  %24 = load i32, ptr %3, align 4, !tbaa !23
  %25 = icmp sge i32 %23, %24
  br i1 %25, label %26, label %100

26:                                               ; preds = %1
  %27 = load i32, ptr %3, align 4, !tbaa !23
  %28 = icmp sgt i32 %27, 0
  br i1 %28, label %34, label %29

29:                                               ; preds = %26
  %30 = load i32, ptr %4, align 4, !tbaa !23
  %31 = load i32, ptr %3, align 4, !tbaa !23
  %32 = add nsw i32 2147483647, %31
  %33 = icmp slt i32 %30, %32
  br i1 %33, label %34, label %35

34:                                               ; preds = %29, %26
  br label %38

35:                                               ; preds = %29
  %36 = load ptr, ptr %2, align 8, !tbaa !4
  call void @_Z14luaL_argerrorLP9lua_StateiPKc(ptr noundef %36, i32 noundef 3, ptr noundef @.str.24) #8
  unreachable

37:                                               ; No predecessors!
  br label %38

38:                                               ; preds = %37, %34
  call void @llvm.lifetime.start.p0(i64 4, ptr %7) #7
  %39 = load i32, ptr %4, align 4, !tbaa !23
  %40 = load i32, ptr %3, align 4, !tbaa !23
  %41 = sub nsw i32 %39, %40
  %42 = add nsw i32 %41, 1
  store i32 %42, ptr %7, align 4, !tbaa !23
  %43 = load i32, ptr %5, align 4, !tbaa !23
  %44 = load i32, ptr %7, align 4, !tbaa !23
  %45 = sub nsw i32 2147483647, %44
  %46 = add nsw i32 %45, 1
  %47 = icmp sle i32 %43, %46
  br i1 %47, label %48, label %49

48:                                               ; preds = %38
  br label %52

49:                                               ; preds = %38
  %50 = load ptr, ptr %2, align 8, !tbaa !4
  call void @_Z14luaL_argerrorLP9lua_StateiPKc(ptr noundef %50, i32 noundef 4, ptr noundef @.str.25) #8
  unreachable

51:                                               ; No predecessors!
  br label %52

52:                                               ; preds = %51, %48
  call void @llvm.lifetime.start.p0(i64 8, ptr %8) #7
  %53 = load ptr, ptr %2, align 8, !tbaa !4
  %54 = getelementptr inbounds nuw %struct.lua_State, ptr %53, i32 0, i32 8
  %55 = load ptr, ptr %54, align 8, !tbaa !9
  %56 = load i32, ptr %6, align 4, !tbaa !23
  %57 = sub nsw i32 %56, 1
  %58 = sext i32 %57 to i64
  %59 = getelementptr inbounds %struct.lua_TValue, ptr %55, i64 %58
  %60 = getelementptr inbounds nuw %struct.lua_TValue, ptr %59, i32 0, i32 0
  %61 = load ptr, ptr %60, align 8, !tbaa !21
  store ptr %61, ptr %8, align 8, !tbaa !22
  %62 = load ptr, ptr %8, align 8, !tbaa !22
  %63 = getelementptr inbounds nuw %struct.LuaTable, ptr %62, i32 0, i32 4
  %64 = load i8, ptr %63, align 4, !tbaa !53
  %65 = icmp ne i8 %64, 0
  br i1 %65, label %66, label %68

66:                                               ; preds = %52
  %67 = load ptr, ptr %2, align 8, !tbaa !4
  call void @_Z18luaG_readonlyerrorP9lua_State(ptr noundef %67) #8
  unreachable

68:                                               ; preds = %52
  %69 = load i32, ptr %5, align 4, !tbaa !23
  %70 = icmp sgt i32 %69, 0
  br i1 %70, label %71, label %94

71:                                               ; preds = %68
  %72 = load i32, ptr %5, align 4, !tbaa !23
  %73 = sub nsw i32 %72, 1
  %74 = load ptr, ptr %8, align 8, !tbaa !22
  %75 = getelementptr inbounds nuw %struct.LuaTable, ptr %74, i32 0, i32 8
  %76 = load i32, ptr %75, align 8, !tbaa !24
  %77 = icmp sle i32 %73, %76
  br i1 %77, label %78, label %94

78:                                               ; preds = %71
  %79 = load i32, ptr %5, align 4, !tbaa !23
  %80 = sub nsw i32 %79, 1
  %81 = load i32, ptr %7, align 4, !tbaa !23
  %82 = add nsw i32 %80, %81
  %83 = load ptr, ptr %8, align 8, !tbaa !22
  %84 = getelementptr inbounds nuw %struct.LuaTable, ptr %83, i32 0, i32 8
  %85 = load i32, ptr %84, align 8, !tbaa !24
  %86 = icmp sgt i32 %82, %85
  br i1 %86, label %87, label %94

87:                                               ; preds = %78
  %88 = load ptr, ptr %2, align 8, !tbaa !4
  %89 = load ptr, ptr %8, align 8, !tbaa !22
  %90 = load i32, ptr %5, align 4, !tbaa !23
  %91 = sub nsw i32 %90, 1
  %92 = load i32, ptr %7, align 4, !tbaa !23
  %93 = add nsw i32 %91, %92
  call void @_Z16luaH_resizearrayP9lua_StateP8LuaTablei(ptr noundef %88, ptr noundef %89, i32 noundef %93)
  br label %94

94:                                               ; preds = %87, %78, %71, %68
  %95 = load ptr, ptr %2, align 8, !tbaa !4
  %96 = load i32, ptr %6, align 4, !tbaa !23
  %97 = load i32, ptr %3, align 4, !tbaa !23
  %98 = load i32, ptr %4, align 4, !tbaa !23
  %99 = load i32, ptr %5, align 4, !tbaa !23
  call void @_ZL12moveelementsP9lua_Stateiiiii(ptr noundef %95, i32 noundef 1, i32 noundef %96, i32 noundef %97, i32 noundef %98, i32 noundef %99)
  call void @llvm.lifetime.end.p0(i64 8, ptr %8) #7
  call void @llvm.lifetime.end.p0(i64 4, ptr %7) #7
  br label %100

100:                                              ; preds = %94, %1
  %101 = load ptr, ptr %2, align 8, !tbaa !4
  %102 = load i32, ptr %6, align 4, !tbaa !23
  call void @_Z13lua_pushvalueP9lua_Statei(ptr noundef %101, i32 noundef %102)
  call void @llvm.lifetime.end.p0(i64 4, ptr %6) #7
  call void @llvm.lifetime.end.p0(i64 4, ptr %5) #7
  call void @llvm.lifetime.end.p0(i64 4, ptr %4) #7
  call void @llvm.lifetime.end.p0(i64 4, ptr %3) #7
  ret i32 1
}