; Function Attrs: mustprogress uwtable
define internal noundef i32 @_ZL5tmoveP9lua_State(ptr noundef %0) #0 {
  tail call void @_Z14luaL_checktypeP9lua_Stateii(ptr noundef %0, i32 noundef 1, i32 noundef 6)
  %2 = tail call noundef i32 @_Z17luaL_checkintegerP9lua_Statei(ptr noundef %0, i32 noundef 2)
  %3 = tail call noundef i32 @_Z17luaL_checkintegerP9lua_Statei(ptr noundef %0, i32 noundef 3)
  %4 = tail call noundef i32 @_Z17luaL_checkintegerP9lua_Statei(ptr noundef %0, i32 noundef 4)
  %5 = tail call noundef i32 @_Z8lua_typeP9lua_Statei(ptr noundef %0, i32 noundef 5)
  %.inv = icmp slt i32 %5, 1
  %6 = select i1 %.inv, i32 1, i32 5
  tail call void @_Z14luaL_checktypeP9lua_Stateii(ptr noundef %0, i32 noundef %6, i32 noundef 6)
  %.not = icmp slt i32 %3, %2
  br i1 %.not, label %37, label %7

7:                                                ; preds = %1
  %8 = icmp sgt i32 %2, 0
  %9 = add nsw i32 %2, 2147483647
  %10 = icmp slt i32 %3, %9
  %or.cond = select i1 %8, i1 true, i1 %10
  br i1 %or.cond, label %12, label %11

11:                                               ; preds = %7
  tail call void @_Z14luaL_argerrorLP9lua_StateiPKc(ptr noundef %0, i32 noundef 3, ptr noundef nonnull @.str.24) #6
  unreachable

12:                                               ; preds = %7
  %13 = sub nsw i32 %3, %2
  %14 = sub i32 2147483647, %13
  %.not43 = icmp sgt i32 %4, %14
  br i1 %.not43, label %15, label %16

15:                                               ; preds = %12
  tail call void @_Z14luaL_argerrorLP9lua_StateiPKc(ptr noundef %0, i32 noundef 4, ptr noundef nonnull @.str.25) #6
  unreachable

16:                                               ; preds = %12
  %17 = getelementptr inbounds nuw i8, ptr %0, i64 16
  %18 = load ptr, ptr %17, align 8, !tbaa !4
  %19 = zext nneg i32 %6 to i64
  %20 = getelementptr %struct.lua_TValue, ptr %18, i64 %19
  %21 = getelementptr i8, ptr %20, i64 -16
  %22 = load ptr, ptr %21, align 8, !tbaa !19
  %23 = getelementptr inbounds nuw i8, ptr %22, i64 4
  %24 = load i8, ptr %23, align 4, !tbaa !44
  %.not44 = icmp eq i8 %24, 0
  br i1 %.not44, label %26, label %25

25:                                               ; preds = %16
  tail call void @_Z18luaG_readonlyerrorP9lua_State(ptr noundef nonnull %0) #6
  unreachable

26:                                               ; preds = %16
  %27 = icmp sgt i32 %4, 0
  br i1 %27, label %28, label %36

28:                                               ; preds = %26
  %29 = add nsw i32 %4, -1
  %30 = getelementptr inbounds nuw i8, ptr %22, i64 8
  %31 = load i32, ptr %30, align 8, !tbaa !20
  %.not45 = icmp sgt i32 %29, %31
  br i1 %.not45, label %36, label %32

32:                                               ; preds = %28
  %33 = add i32 %4, %13
  %34 = icmp sgt i32 %33, %31
  br i1 %34, label %35, label %36

35:                                               ; preds = %32
  tail call void @_Z16luaH_resizearrayP9lua_StateP8LuaTablei(ptr noundef nonnull %0, ptr noundef nonnull %22, i32 noundef %33)
  br label %36

36:                                               ; preds = %35, %32, %28, %26
  tail call fastcc void @_ZL12moveelementsP9lua_Stateiiiii(ptr noundef nonnull %0, i32 noundef %6, i32 noundef %2, i32 noundef %3, i32 noundef %4)
  br label %37

37:                                               ; preds = %36, %1
  tail call void @_Z13lua_pushvalueP9lua_Statei(ptr noundef %0, i32 noundef %6)
  ret i32 1
}